target datalayout = "e-m:e-p270:32:32-p271:32:32-p272:64:64-i64:64-i128:128-f80:128-n8:16:32:64-S128"
target triple = "x86_64-pc-linux-gnu"

%struct._PyUnicodeWriter = type { ptr, ptr, i32, i32, i64, i64, i64, i32, i8, i8 }

; Function Attrs: nounwind uwtable
define internal i32 @fill_padding(ptr noundef %0, i64 noundef %1, i32 noundef %2, i64 noundef %3, i64 noundef %4) #0 {
  %6 = alloca ptr, align 8
  %7 = alloca i64, align 8
  %8 = alloca i32, align 4
  %9 = alloca i64, align 8
  %10 = alloca i64, align 8
  %11 = alloca i64, align 8
  store ptr %0, ptr %6, align 8, !tbaa !4
  store i64 %1, ptr %7, align 8, !tbaa !10
  store i32 %2, ptr %8, align 4, !tbaa !26
  store i64 %3, ptr %9, align 8, !tbaa !10
  store i64 %4, ptr %10, align 8, !tbaa !10
  call void @llvm.lifetime.start.p0(i64 8, ptr %11) #10
  %12 = load i64, ptr %9, align 8, !tbaa !10
  %13 = icmp ne i64 %12, 0
  br i1 %13, label %14, label %24

14:                                               ; preds = %5
  %15 = load ptr, ptr %6, align 8, !tbaa !4
  %16 = getelementptr inbounds nuw %struct._PyUnicodeWriter, ptr %15, i32 0, i32 5
  %17 = load i64, ptr %16, align 8, !tbaa !39
  store i64 %17, ptr %11, align 8, !tbaa !10
  %18 = load ptr, ptr %6, align 8, !tbaa !4
  %19 = getelementptr inbounds nuw %struct._PyUnicodeWriter, ptr %18, i32 0, i32 0
  %20 = load ptr, ptr %19, align 8, !tbaa !40
  %21 = load i64, ptr %11, align 8, !tbaa !10
  %22 = load i64, ptr %9, align 8, !tbaa !10
  %23 = load i32, ptr %8, align 4, !tbaa !26
  call void @_PyUnicode_FastFill(ptr noundef %20, i64 noundef %21, i64 noundef %22, i32 noundef %23)
  br label %24

24:                                               ; preds = %14, %5
  %25 = load i64, ptr %10, align 8, !tbaa !10
  %26 = icmp ne i64 %25, 0
  br i1 %26, label %27, label %41

27:                                               ; preds = %24
  %28 = load ptr, ptr %6, align 8, !tbaa !4
  %29 = getelementptr inbounds nuw %struct._PyUnicodeWriter, ptr %28, i32 0, i32 5
  %30 = load i64, ptr %29, align 8, !tbaa !39
  %31 = load i64, ptr %7, align 8, !tbaa !10
  %32 = add i64 %30, %31
  %33 = load i64, ptr %9, align 8, !tbaa !10
  %34 = add i64 %32, %33
  store i64 %34, ptr %11, align 8, !tbaa !10
  %35 = load ptr, ptr %6, align 8, !tbaa !4
  %36 = getelementptr inbounds nuw %struct._PyUnicodeWriter, ptr %35, i32 0, i32 0
  %37 = load ptr, ptr %36, align 8, !tbaa !40
  %38 = load i64, ptr %11, align 8, !tbaa !10
  %39 = load i64, ptr %10, align 8, !tbaa !10
  %40 = load i32, ptr %8, align 4, !tbaa !26
  call void @_PyUnicode_FastFill(ptr noundef %37, i64 noundef %38, i64 noundef %39, i32 noundef %40)
  br label %41

41:                                               ; preds = %27, %24
  %42 = load i64, ptr %9, align 8, !tbaa !10
  %43 = load ptr, ptr %6, align 8, !tbaa !4
  %44 = getelementptr inbounds nuw %struct._PyUnicodeWriter, ptr %43, i32 0, i32 5
  %45 = load i64, ptr %44, align 8, !tbaa !39
  %46 = add i64 %45, %42
  store i64 %46, ptr %44, align 8, !tbaa !39
  call void @llvm.lifetime.end.p0(i64 8, ptr %11) #10
  ret i32 0
}