; Function Attrs: nounwind uwtable
define internal fastcc void @fill_padding(ptr noundef captures(none) %0, i64 noundef %1, i32 noundef %2, i64 noundef %3, i64 noundef %4) unnamed_addr #0 {
  %.not = icmp eq i64 %3, 0
  br i1 %.not, label %10, label %6

6:                                                ; preds = %5
  %7 = getelementptr inbounds nuw i8, ptr %0, i64 32
  %8 = load i64, ptr %7, align 8, !tbaa !30
  %9 = load ptr, ptr %0, align 8, !tbaa !31
  tail call void @_PyUnicode_FastFill(ptr noundef %9, i64 noundef %8, i64 noundef %3, i32 noundef %2) #12
  br label %10

10:                                               ; preds = %6, %5
  %.not16 = icmp eq i64 %4, 0
  br i1 %.not16, label %17, label %11

11:                                               ; preds = %10
  %12 = getelementptr inbounds nuw i8, ptr %0, i64 32
  %13 = load i64, ptr %12, align 8, !tbaa !30
  %14 = add i64 %3, %1
  %15 = add i64 %14, %13
  %16 = load ptr, ptr %0, align 8, !tbaa !31
  tail call void @_PyUnicode_FastFill(ptr noundef %16, i64 noundef %15, i64 noundef %4, i32 noundef %2) #12
  br label %17

17:                                               ; preds = %11, %10
  %18 = getelementptr inbounds nuw i8, ptr %0, i64 32
  %19 = load i64, ptr %18, align 8, !tbaa !30
  %20 = add i64 %19, %3
  store i64 %20, ptr %18, align 8, !tbaa !30
  ret void
}